target datalayout = "e-m:e-p270:32:32-p271:32:32-p272:64:64-i64:64-i128:128-f80:128-n8:16:32:64-S128"
target triple = "x86_64-pc-linux-gnu"

%struct.redisServer = type { i32, i64, ptr, ptr, ptr, i32, i32, i32, i32, i32, ptr, ptr, ptr, ptr, ptr, i32, i32, i32, i32, i64, i32, i32, i32, i32, ptr, i32, i32, [41 x i8], i32, i64, i32, i32, i32, ptr, ptr, i32, i32, i64, ptr, ptr, ptr, ptr, [2 x i32], i32, i32, i32, i32, i32, i32, [16 x ptr], i32, ptr, ptr, i32, [8 x %struct.connListener], i32, %struct.connListener, ptr, ptr, ptr, ptr, ptr, ptr, ptr, ptr, ptr, ptr, i32, ptr, i32, ptr, [3 x %struct.pause_event], [256 x i8], ptr, i64, i32, i32, [128 x i32], i32, i32, i64, i32, i32, i32, i32, i32, i64, i64, i64, i64, i64, i64, i64, i64, i64, i64, double, i64, i64, i64, i64, i64, i64, i64, i64, i64, i64, i64, i64, i64, i64, i64, i64, i64, i64, i64, i64, i64, double, i64, i64, i64, i64, i64, ptr, i64, i64, i64, %struct.malloc_stats, i64, i64, i64, i64, i64, i64, i64, i64, i64, i64, i64, i64, double, [4 x i64], i64, i64, i64, i64, [128 x i64], [128 x i64], i64, i64, [7 x %struct.anon], i64, i64, i64, i64, i64, i64, [4 x %struct.durationStats], i32, i32, i32, i32, i32, i32, i32, i32, i32, i32, i32, i32, i64, i32, i32, i32, i32, i64, i64, i32, i32, i32, i32, i32, ptr, [3 x %struct.clientBufferLimitsConfig], i32, i32, i32, ptr, i32, i32, i32, i32, i32, i32, ptr, ptr, i32, i32, i64, i64, i64, i64, i64, i32, i32, ptr, i32, i32, i64, i64, i64, i64, i64, i32, i32, i64, i32, i32, i32, i32, i32, i32, i32, i32, ptr, i32, i64, i64, i64, i64, i32, ptr, i32, ptr, i32, i32, i32, i64, i64, i64, i64, i32, i32, i32, i32, i32, i32, ptr, i32, i32, ptr, i32, i32, i32, [2 x i32], i32, %struct.redisOpArray, i32, ptr, i32, ptr, i32, i32, i32, i32, i32, i32, i32, [41 x i8], [41 x i8], i64, i64, i64, i64, i32, i32, ptr, i64, i64, %struct.replDataBuf, i64, i64, i32, i32, i32, i32, i32, i32, i32, i32, i32, i64, ptr, i64, ptr, ptr, ptr, i32, i32, ptr, ptr, i32, i32, i32, i64, i64, i64, i64, ptr, ptr, i32, ptr, i64, i32, i32, i32, i64, i32, i32, i32, i32, ptr, i32, i32, [41 x i8], i64, i32, ptr, i32, i32, i64, i64, i32, i32, i32, i32, i32, i64, [3 x i32], i32, i32, i32, [10 x i32], ptr, ptr, i32, i64, ptr, ptr, i32, i32, i32, i32, i64, i64, i64, i64, i64, i64, i64, i64, i64, i64, i32, i32, i64, i64, i32, i64, i64, i64, i64, i64, ptr, ptr, i32, ptr, i32, i32, i32, i32, i64, i64, ptr, ptr, i32, i32, i32, i32, i32, ptr, ptr, ptr, i32, i32, i32, i32, i32, i32, i32, i64, i32, i32, i64, i32, i32, i32, i32, i32, i32, i32, i64, ptr, ptr, i64, ptr, i32, %struct.aclInfo, i32, i64, i32, i32, i32, %struct.redisTLSContextConfig, ptr, ptr, ptr, ptr, ptr, i64, i32, ptr, i32, i32, i32, i64, i32, ptr }
%struct.connListener = type { [16 x i32], i32, ptr, i32, i32, ptr, ptr }
%struct.pause_event = type { i32, i64 }
%struct.malloc_stats = type { i64, i64, i64, i64, i64, i64, i64, i64, i64, i64, i64 }
%struct.anon = type { i64, i64, [16 x i64], i32 }
%struct.durationStats = type { i64, i64, i64 }
%struct.clientBufferLimitsConfig = type { i64, i64, i64 }
%struct.redisOpArray = type { ptr, i32, i32 }
%struct.replDataBuf = type { ptr, i64, i64, i64, i64 }
%struct.aclInfo = type { i64, i64, i64, i64 }
%struct.redisTLSContextConfig = type { ptr, ptr, ptr, ptr, ptr, ptr, ptr, ptr, ptr, ptr, ptr, ptr, i32, i32, i32, i32 }
%struct.aofManifest = type { ptr, ptr, ptr, i64, i64, i32 }
%struct.list = type { ptr, ptr, ptr, ptr, ptr, i64 }

@.str.1 = private unnamed_addr constant [6 x i8] c"aof.c\00", align 1
@server = external global %struct.redisServer, align 8
@.str.49 = private unnamed_addr constant [44 x i8] c"Can't open or create append-only dir %s: %s\00", align 1
@.str.55 = private unnamed_addr constant [28 x i8] c"server.aof_manifest != NULL\00", align 1
@.str.56 = private unnamed_addr constant [20 x i8] c"server.aof_fd == -1\00", align 1
@.str.57 = private unnamed_addr constant [42 x i8] c"Creating AOF base file %s on server start\00", align 1
@.str.58 = private unnamed_addr constant [39 x i8] c"Can't open the append-only file %s: %s\00", align 1
@.str.59 = private unnamed_addr constant [41 x i8] c"Opening AOF incr file %s on server start\00", align 1
@.str.60 = private unnamed_addr constant [42 x i8] c"Creating AOF incr file %s on server start\00", align 1

; Function Attrs: nounwind uwtable
define dso_local i32 @persistAofManifest(ptr noundef %0) #0 {
  %2 = alloca i32, align 4
  %3 = alloca ptr, align 8
  %4 = alloca ptr, align 8
  %5 = alloca i32, align 4
  store ptr %0, ptr %3, align 8, !tbaa !5
  %6 = load ptr, ptr %3, align 8, !tbaa !5
  %7 = getelementptr inbounds nuw %struct.aofManifest, ptr %6, i32 0, i32 5
  %8 = load i32, ptr %7, align 8, !tbaa !75
  %9 = icmp eq i32 %8, 0
  br i1 %9, label %10, label %11

10:                                               ; preds = %1
  store i32 0, ptr %2, align 4
  br label %24

11:                                               ; preds = %1
  call void @llvm.lifetime.start.p0(i64 8, ptr %4) #12
  %12 = load ptr, ptr %3, align 8, !tbaa !5
  %13 = call ptr @getAofManifestAsString(ptr noundef %12)
  store ptr %13, ptr %4, align 8, !tbaa !18
  call void @llvm.lifetime.start.p0(i64 4, ptr %5) #12
  %14 = load ptr, ptr %4, align 8, !tbaa !18
  %15 = call i32 @writeAofManifestFile(ptr noundef %14)
  store i32 %15, ptr %5, align 4, !tbaa !22
  %16 = load ptr, ptr %4, align 8, !tbaa !18
  call void @sdsfree(ptr noundef %16)
  %17 = load i32, ptr %5, align 4, !tbaa !22
  %18 = icmp eq i32 %17, 0
  br i1 %18, label %19, label %22

19:                                               ; preds = %11
  %20 = load ptr, ptr %3, align 8, !tbaa !5
  %21 = getelementptr inbounds nuw %struct.aofManifest, ptr %20, i32 0, i32 5
  store i32 0, ptr %21, align 8, !tbaa !75
  br label %22

22:                                               ; preds = %19, %11
  %23 = load i32, ptr %5, align 4, !tbaa !22
  store i32 %23, ptr %2, align 4
  call void @llvm.lifetime.end.p0(i64 4, ptr %5) #12
  call void @llvm.lifetime.end.p0(i64 8, ptr %4) #12
  br label %24

24:                                               ; preds = %22, %10
  %25 = load i32, ptr %2, align 4
  ret i32 %25
}

; Function Attrs: nounwind uwtable
define dso_local void @aofOpenIfNeededOnServerStart() #0 {
  %1 = alloca i64, align 8
  %2 = alloca ptr, align 8
  %3 = alloca ptr, align 8
  %4 = alloca ptr, align 8
  %5 = alloca ptr, align 8
  %6 = alloca i32, align 4
  %7 = load i32, ptr getelementptr inbounds nuw (%struct.redisServer, ptr @server, i32 0, i32 193), align 8, !tbaa !84
  %8 = icmp ne i32 %7, 1
  br i1 %8, label %9, label %10

9:                                                ; preds = %0
  br label %136

10:                                               ; preds = %0
  %11 = load ptr, ptr getelementptr inbounds nuw (%struct.redisServer, ptr @server, i32 0, i32 225), align 8, !tbaa !65
  %12 = icmp ne ptr %11, null
  %13 = xor i1 %12, true
  %14 = xor i1 %13, true
  %15 = zext i1 %14 to i32
  %16 = sext i32 %15 to i64
  %17 = call i64 @llvm.expect.i64(i64 %16, i64 1)
  %18 = icmp ne i64 %17, 0
  br i1 %18, label %19, label %20

19:                                               ; preds = %10
  br label %22

20:                                               ; preds = %10
  call void @_serverAssert(ptr noundef @.str.55, ptr noundef @.str.1, i32 noundef 727)
  call void @abort() #14
  unreachable

21:                                               ; No predecessors!
  br label %22

22:                                               ; preds = %21, %19
  %23 = load i32, ptr getelementptr inbounds nuw (%struct.redisServer, ptr @server, i32 0, i32 207), align 8, !tbaa !79
  %24 = icmp eq i32 %23, -1
  %25 = xor i1 %24, true
  %26 = xor i1 %25, true
  %27 = zext i1 %26 to i32
  %28 = sext i32 %27 to i64
  %29 = call i64 @llvm.expect.i64(i64 %28, i64 1)
  %30 = icmp ne i64 %29, 0
  br i1 %30, label %31, label %32

31:                                               ; preds = %22
  br label %34

32:                                               ; preds = %22
  call void @_serverAssert(ptr noundef @.str.56, ptr noundef @.str.1, i32 noundef 728)
  call void @abort() #14
  unreachable

33:                                               ; No predecessors!
  br label %34

34:                                               ; preds = %33, %31
  %35 = load ptr, ptr getelementptr inbounds nuw (%struct.redisServer, ptr @server, i32 0, i32 196), align 8, !tbaa !66
  %36 = call i32 @dirCreateIfMissing(ptr noundef %35)
  %37 = icmp eq i32 %36, -1
  br i1 %37, label %38, label %49

38:                                               ; preds = %34
  br label %39

39:                                               ; preds = %38
  %40 = load i32, ptr getelementptr inbounds nuw (%struct.redisServer, ptr @server, i32 0, i32 159), align 8, !tbaa !67
  %41 = icmp slt i32 3, %40
  br i1 %41, label %42, label %43

42:                                               ; preds = %39
  br label %48

43:                                               ; preds = %39
  %44 = load ptr, ptr getelementptr inbounds nuw (%struct.redisServer, ptr @server, i32 0, i32 196), align 8, !tbaa !66
  %45 = call ptr @__errno_location() #15
  %46 = load i32, ptr %45, align 4, !tbaa !22
  %47 = call ptr @strerror(i32 noundef %46) #12
  call void (i32, ptr, ...) @_serverLog(i32 noundef 3, ptr noundef @.str.49, ptr noundef %44, ptr noundef %47)
  br label %48

48:                                               ; preds = %43, %42
  call void @exit(i32 noundef 1) #14
  unreachable

49:                                               ; preds = %34
  call void @llvm.lifetime.start.p0(i64 8, ptr %1) #12
  %50 = load ptr, ptr getelementptr inbounds nuw (%struct.redisServer, ptr @server, i32 0, i32 225), align 8, !tbaa !65
  %51 = getelementptr inbounds nuw %struct.aofManifest, ptr %50, i32 0, i32 1
  %52 = load ptr, ptr %51, align 8, !tbaa !25
  %53 = getelementptr inbounds nuw %struct.list, ptr %52, i32 0, i32 5
  %54 = load i64, ptr %53, align 8, !tbaa !77
  store i64 %54, ptr %1, align 8, !tbaa !23
  %55 = load ptr, ptr getelementptr inbounds nuw (%struct.redisServer, ptr @server, i32 0, i32 225), align 8, !tbaa !65
  %56 = getelementptr inbounds nuw %struct.aofManifest, ptr %55, i32 0, i32 0
  %57 = load ptr, ptr %56, align 8, !tbaa !33
  %58 = icmp ne ptr %57, null
  br i1 %58, label %82, label %59

59:                                               ; preds = %49
  %60 = load i64, ptr %1, align 8, !tbaa !23
  %61 = icmp ne i64 %60, 0
  br i1 %61, label %82, label %62

62:                                               ; preds = %59
  call void @llvm.lifetime.start.p0(i64 8, ptr %2) #12
  %63 = load ptr, ptr getelementptr inbounds nuw (%struct.redisServer, ptr @server, i32 0, i32 225), align 8, !tbaa !65
  %64 = call ptr @getNewBaseFileNameAndMarkPreAsHistory(ptr noundef %63)
  store ptr %64, ptr %2, align 8, !tbaa !18
  call void @llvm.lifetime.start.p0(i64 8, ptr %3) #12
  %65 = load ptr, ptr getelementptr inbounds nuw (%struct.redisServer, ptr @server, i32 0, i32 196), align 8, !tbaa !66
  %66 = load ptr, ptr %2, align 8, !tbaa !18
  %67 = call ptr @makePath(ptr noundef %65, ptr noundef %66)
  store ptr %67, ptr %3, align 8, !tbaa !18
  %68 = load ptr, ptr %3, align 8, !tbaa !18
  %69 = call i32 @rewriteAppendOnlyFile(ptr noundef %68)
  %70 = icmp ne i32 %69, 0
  br i1 %70, label %71, label %72

71:                                               ; preds = %62
  call void @exit(i32 noundef 1) #14
  unreachable

72:                                               ; preds = %62
  %73 = load ptr, ptr %3, align 8, !tbaa !18
  call void @sdsfree(ptr noundef %73)
  br label %74

74:                                               ; preds = %72
  %75 = load i32, ptr getelementptr inbounds nuw (%struct.redisServer, ptr @server, i32 0, i32 159), align 8, !tbaa !67
  %76 = icmp slt i32 2, %75
  br i1 %76, label %77, label %78

77:                                               ; preds = %74
  br label %81

78:                                               ; preds = %74
  %79 = load ptr, ptr %2, align 8, !tbaa !18
  call void (i32, ptr, ...) @_serverLog(i32 noundef 2, ptr noundef @.str.57, ptr noundef %79)
  br label %80

80:                                               ; preds = %78
  br label %81

81:                                               ; preds = %80, %77
  call void @llvm.lifetime.end.p0(i64 8, ptr %3) #12
  call void @llvm.lifetime.end.p0(i64 8, ptr %2) #12
  br label %82

82:                                               ; preds = %81, %59, %49
  call void @llvm.lifetime.start.p0(i64 8, ptr %4) #12
  %83 = load ptr, ptr getelementptr inbounds nuw (%struct.redisServer, ptr @server, i32 0, i32 225), align 8, !tbaa !65
  %84 = call ptr @getLastIncrAofName(ptr noundef %83)
  store ptr %84, ptr %4, align 8, !tbaa !18
  call void @llvm.lifetime.start.p0(i64 8, ptr %5) #12
  %85 = load ptr, ptr getelementptr inbounds nuw (%struct.redisServer, ptr @server, i32 0, i32 196), align 8, !tbaa !66
  %86 = load ptr, ptr %4, align 8, !tbaa !18
  %87 = call ptr @makePath(ptr noundef %85, ptr noundef %86)
  store ptr %87, ptr %5, align 8, !tbaa !18
  %88 = load ptr, ptr %5, align 8, !tbaa !18
  %89 = call i32 (ptr, i32, ...) @open64(ptr noundef %88, i32 noundef 1089, i32 noundef 420)
  store i32 %89, ptr getelementptr inbounds nuw (%struct.redisServer, ptr @server, i32 0, i32 207), align 8, !tbaa !79
  %90 = load ptr, ptr %5, align 8, !tbaa !18
  call void @sdsfree(ptr noundef %90)
  %91 = load i32, ptr getelementptr inbounds nuw (%struct.redisServer, ptr @server, i32 0, i32 207), align 8, !tbaa !79
  %92 = icmp eq i32 %91, -1
  br i1 %92, label %93, label %105

93:                                               ; preds = %82
  br label %94

94:                                               ; preds = %93
  %95 = load i32, ptr getelementptr inbounds nuw (%struct.redisServer, ptr @server, i32 0, i32 159), align 8, !tbaa !67
  %96 = icmp slt i32 3, %95
  br i1 %96, label %97, label %98

97:                                               ; preds = %94
  br label %104

98:                                               ; preds = %94
  %99 = load ptr, ptr %4, align 8, !tbaa !18
  %100 = call ptr @__errno_location() #15
  %101 = load i32, ptr %100, align 4, !tbaa !22
  %102 = call ptr @strerror(i32 noundef %101) #12
  call void (i32, ptr, ...) @_serverLog(i32 noundef 3, ptr noundef @.str.58, ptr noundef %99, ptr noundef %102)
  br label %103

103:                                              ; preds = %98
  br label %104

104:                                              ; preds = %103, %97
  call void @exit(i32 noundef 1) #14
  unreachable

105:                                              ; preds = %82
  call void @llvm.lifetime.start.p0(i64 4, ptr %6) #12
  %106 = load ptr, ptr getelementptr inbounds nuw (%struct.redisServer, ptr @server, i32 0, i32 225), align 8, !tbaa !65
  %107 = call i32 @persistAofManifest(ptr noundef %106)
  store i32 %107, ptr %6, align 4, !tbaa !22
  %108 = load i32, ptr %6, align 4, !tbaa !22
  %109 = icmp ne i32 %108, 0
  br i1 %109, label %110, label %111

110:                                              ; preds = %105
  call void @exit(i32 noundef 1) #14
  unreachable

111:                                              ; preds = %105
  %112 = load ptr, ptr %4, align 8, !tbaa !18
  %113 = call i64 @getAppendOnlyFileSize(ptr noundef %112, ptr noundef null)
  store i64 %113, ptr getelementptr inbounds nuw (%struct.redisServer, ptr @server, i32 0, i32 202), align 8, !tbaa !85
  %114 = load i64, ptr getelementptr inbounds nuw (%struct.redisServer, ptr @server, i32 0, i32 202), align 8, !tbaa !85
  store i64 %114, ptr getelementptr inbounds nuw (%struct.redisServer, ptr @server, i32 0, i32 203), align 8, !tbaa !86
  %115 = load i64, ptr %1, align 8, !tbaa !23
  %116 = icmp ne i64 %115, 0
  br i1 %116, label %117, label %126

117:                                              ; preds = %111
  br label %118

118:                                              ; preds = %117
  %119 = load i32, ptr getelementptr inbounds nuw (%struct.redisServer, ptr @server, i32 0, i32 159), align 8, !tbaa !67
  %120 = icmp slt i32 2, %119
  br i1 %120, label %121, label %122

121:                                              ; preds = %118
  br label %125

122:                                              ; preds = %118
  %123 = load ptr, ptr %4, align 8, !tbaa !18
  call void (i32, ptr, ...) @_serverLog(i32 noundef 2, ptr noundef @.str.59, ptr noundef %123)
  br label %124

124:                                              ; preds = %122
  br label %125

125:                                              ; preds = %124, %121
  br label %135

126:                                              ; preds = %111
  br label %127

127:                                              ; preds = %126
  %128 = load i32, ptr getelementptr inbounds nuw (%struct.redisServer, ptr @server, i32 0, i32 159), align 8, !tbaa !67
  %129 = icmp slt i32 2, %128
  br i1 %129, label %130, label %131

130:                                              ; preds = %127
  br label %134

131:                                              ; preds = %127
  %132 = load ptr, ptr %4, align 8, !tbaa !18
  call void (i32, ptr, ...) @_serverLog(i32 noundef 2, ptr noundef @.str.60, ptr noundef %132)
  br label %133

133:                                              ; preds = %131
  br label %134

134:                                              ; preds = %133, %130
  br label %135

135:                                              ; preds = %134, %125
  call void @llvm.lifetime.end.p0(i64 4, ptr %6) #12
  call void @llvm.lifetime.end.p0(i64 8, ptr %5) #12
  call void @llvm.lifetime.end.p0(i64 8, ptr %4) #12
  call void @llvm.lifetime.end.p0(i64 8, ptr %1) #12
  br label %136

136:                                              ; preds = %135, %9
  ret void
}