; Function Attrs: nounwind uwtable
define dso_local void @aofOpenIfNeededOnServerStart() local_unnamed_addr #0 {
  %1 = load i32, ptr getelementptr inbounds nuw (i8, ptr @server, i64 6520), align 8, !tbaa !79
  %.not = icmp eq i32 %1, 1
  br i1 %.not, label %2, label %71

2:                                                ; preds = %0
  %3 = load ptr, ptr getelementptr inbounds nuw (i8, ptr @server, i64 6704), align 8, !tbaa !63
  %.not14 = icmp eq ptr %3, null
  br i1 %.not14, label %4, label %5, !prof !5

4:                                                ; preds = %2
  tail call void @_serverAssert(ptr noundef nonnull @.str.55, ptr noundef nonnull @.str.1, i32 noundef 727) #20
  tail call void @abort() #21
  unreachable

5:                                                ; preds = %2
  %6 = load i32, ptr getelementptr inbounds nuw (i8, ptr @server, i64 6608), align 8, !tbaa !75
  %7 = icmp eq i32 %6, -1
  br i1 %7, label %9, label %8, !prof !71

8:                                                ; preds = %5
  tail call void @_serverAssert(ptr noundef nonnull @.str.56, ptr noundef nonnull @.str.1, i32 noundef 728) #20
  tail call void @abort() #21
  unreachable

9:                                                ; preds = %5
  %10 = load ptr, ptr getelementptr inbounds nuw (i8, ptr @server, i64 6536), align 8, !tbaa !64
  %11 = tail call i32 @dirCreateIfMissing(ptr noundef %10) #20
  %12 = icmp eq i32 %11, -1
  br i1 %12, label %13, label %22

13:                                               ; preds = %9
  %14 = load i32, ptr getelementptr inbounds nuw (i8, ptr @server, i64 6288), align 8, !tbaa !65
  %15 = icmp sgt i32 %14, 3
  br i1 %15, label %21, label %16

16:                                               ; preds = %13
  %17 = load ptr, ptr getelementptr inbounds nuw (i8, ptr @server, i64 6536), align 8, !tbaa !64
  %18 = tail call ptr @__errno_location() #22
  %19 = load i32, ptr %18, align 4, !tbaa !21
  %20 = tail call ptr @strerror(i32 noundef %19) #20
  tail call void (i32, ptr, ...) @_serverLog(i32 noundef 3, ptr noundef nonnull @.str.49, ptr noundef %17, ptr noundef %20) #20
  br label %21

21:                                               ; preds = %13, %16
  tail call void @exit(i32 noundef 1) #23
  unreachable

22:                                               ; preds = %9
  %23 = load ptr, ptr getelementptr inbounds nuw (i8, ptr @server, i64 6704), align 8, !tbaa !63
  %24 = getelementptr inbounds nuw i8, ptr %23, i64 8
  %25 = load ptr, ptr %24, align 8, !tbaa !24
  %26 = getelementptr inbounds nuw i8, ptr %25, i64 40
  %27 = load i64, ptr %26, align 8, !tbaa !73
  %28 = load ptr, ptr %23, align 8, !tbaa !32
  %29 = icmp ne ptr %28, null
  %30 = icmp ne i64 %27, 0
  %or.cond = select i1 %29, i1 true, i1 %30
  br i1 %or.cond, label %41, label %31

31:                                               ; preds = %22
  %32 = tail call ptr @getNewBaseFileNameAndMarkPreAsHistory(ptr noundef nonnull %23)
  %33 = load ptr, ptr getelementptr inbounds nuw (i8, ptr @server, i64 6536), align 8, !tbaa !64
  %34 = tail call ptr @makePath(ptr noundef %33, ptr noundef %32) #20
  %35 = tail call i32 @rewriteAppendOnlyFile(ptr noundef %34)
  %.not15 = icmp eq i32 %35, 0
  br i1 %.not15, label %37, label %36

36:                                               ; preds = %31
  tail call void @exit(i32 noundef 1) #23
  unreachable

37:                                               ; preds = %31
  tail call void @sdsfree(ptr noundef %34) #20
  %38 = load i32, ptr getelementptr inbounds nuw (i8, ptr @server, i64 6288), align 8, !tbaa !65
  %39 = icmp sgt i32 %38, 2
  br i1 %39, label %41, label %40

40:                                               ; preds = %37
  tail call void (i32, ptr, ...) @_serverLog(i32 noundef 2, ptr noundef nonnull @.str.57, ptr noundef %32) #20
  br label %41

41:                                               ; preds = %40, %37, %22
  %42 = load ptr, ptr getelementptr inbounds nuw (i8, ptr @server, i64 6704), align 8, !tbaa !63
  %43 = tail call ptr @getLastIncrAofName(ptr noundef %42)
  %44 = load ptr, ptr getelementptr inbounds nuw (i8, ptr @server, i64 6536), align 8, !tbaa !64
  %45 = tail call ptr @makePath(ptr noundef %44, ptr noundef %43) #20
  %46 = tail call i32 (ptr, i32, ...) @open64(ptr noundef %45, i32 noundef 1089, i32 noundef 420) #20
  store i32 %46, ptr getelementptr inbounds nuw (i8, ptr @server, i64 6608), align 8, !tbaa !75
  tail call void @sdsfree(ptr noundef %45) #20
  %47 = load i32, ptr getelementptr inbounds nuw (i8, ptr @server, i64 6608), align 8, !tbaa !75
  %48 = icmp eq i32 %47, -1
  br i1 %48, label %49, label %57

49:                                               ; preds = %41
  %50 = load i32, ptr getelementptr inbounds nuw (i8, ptr @server, i64 6288), align 8, !tbaa !65
  %51 = icmp sgt i32 %50, 3
  br i1 %51, label %56, label %52

52:                                               ; preds = %49
  %53 = tail call ptr @__errno_location() #22
  %54 = load i32, ptr %53, align 4, !tbaa !21
  %55 = tail call ptr @strerror(i32 noundef %54) #20
  tail call void (i32, ptr, ...) @_serverLog(i32 noundef 3, ptr noundef nonnull @.str.58, ptr noundef %43, ptr noundef %55) #20
  br label %56

56:                                               ; preds = %49, %52
  tail call void @exit(i32 noundef 1) #23
  unreachable

57:                                               ; preds = %41
  %58 = load ptr, ptr getelementptr inbounds nuw (i8, ptr @server, i64 6704), align 8, !tbaa !63
  %59 = getelementptr inbounds nuw i8, ptr %58, i64 40
  %60 = load i32, ptr %59, align 8, !tbaa !70
  %61 = icmp eq i32 %60, 0
  br i1 %61, label %67, label %62

62:                                               ; preds = %57
  %63 = tail call ptr @getAofManifestAsString(ptr noundef nonnull %58)
  %64 = tail call i32 @writeAofManifestFile(ptr noundef %63)
  tail call void @sdsfree(ptr noundef %63) #20
  %65 = icmp eq i32 %64, 0
  br i1 %65, label %66, label %persistAofManifest.exit

66:                                               ; preds = %62
  store i32 0, ptr %59, align 8, !tbaa !70
  br label %67

persistAofManifest.exit:                          ; preds = %62
  tail call void @exit(i32 noundef 1) #23
  unreachable

67:                                               ; preds = %57, %66
  %68 = tail call i64 @getAppendOnlyFileSize(ptr noundef %43, ptr noundef null)
  store i64 %68, ptr getelementptr inbounds nuw (i8, ptr @server, i64 6576), align 8, !tbaa !80
  store i64 %68, ptr getelementptr inbounds nuw (i8, ptr @server, i64 6584), align 8, !tbaa !81
  %69 = load i32, ptr getelementptr inbounds nuw (i8, ptr @server, i64 6288), align 8, !tbaa !65
  %70 = icmp sgt i32 %69, 2
  br i1 %70, label %71, label %.sink.split

.sink.split:                                      ; preds = %67
  %.str.59..str.60 = select i1 %30, ptr @.str.59, ptr @.str.60
  tail call void (i32, ptr, ...) @_serverLog(i32 noundef 2, ptr noundef nonnull %.str.59..str.60, ptr noundef %43) #20
  br label %71

71:                                               ; preds = %67, %.sink.split, %0
  ret void
}